target datalayout = "e-m:e-p270:32:32-p271:32:32-p272:64:64-i64:64-i128:128-f80:128-n8:16:32:64-S128"
target triple = "x86_64-pc-linux-gnu"

%class.mpfx_manager = type <{ i32, i32, i32, [4 x i8], %class.svector, i32, i8, [3 x i8], %class.id_gen, %class.svector, %class.svector, %class.svector, %class.svector, %class.mpfx, [4 x i8] }>
%class.id_gen = type { i32, %class.svector }
%class.svector = type { %class.vector }
%class.vector = type { ptr }
%class.mpfx = type { i32 }

; Function Attrs: mustprogress nounwind uwtable
define linkonce_odr hidden noundef ptr @_ZNK6vectorIjLb0EjE4dataEv(ptr noundef nonnull align 8 dereferenceable(8) %0) #5 comdat align 2 {
  %2 = alloca ptr, align 8
  store ptr %0, ptr %2, align 8, !tbaa !30
  %3 = load ptr, ptr %2, align 8
  %4 = getelementptr inbounds nuw %class.vector, ptr %3, i32 0, i32 0
  %5 = load ptr, ptr %4, align 8, !tbaa !34
  ret ptr %5
}

; Function Attrs: mustprogress nounwind uwtable
define linkonce_odr hidden noundef zeroext i1 @_ZN12mpfx_manager6is_negERK4mpfx(ptr noundef nonnull align 4 dereferenceable(4) %0) #5 comdat align 2 {
  %2 = alloca ptr, align 8
  store ptr %0, ptr %2, align 8, !tbaa !28
  %3 = load ptr, ptr %2, align 8, !tbaa !28
  %4 = load i32, ptr %3, align 4
  %5 = and i32 %4, 1
  %6 = icmp ne i32 %5, 0
  ret i1 %6
}

; Function Attrs: mustprogress uwtable
define linkonce_odr hidden noundef ptr @_ZNK12mpfx_manager5wordsERK4mpfx(ptr noundef nonnull align 8 dereferenceable(85) %0, ptr noundef nonnull align 4 dereferenceable(4) %1) #4 comdat align 2 {
  %3 = alloca ptr, align 8
  %4 = alloca ptr, align 8
  store ptr %0, ptr %3, align 8, !tbaa !3
  store ptr %1, ptr %4, align 8, !tbaa !28
  %5 = load ptr, ptr %3, align 8
  %6 = getelementptr inbounds nuw %class.mpfx_manager, ptr %5, i32 0, i32 4
  %7 = call noundef ptr @_ZNK6vectorIjLb0EjE4dataEv(ptr noundef nonnull align 8 dereferenceable(8) %6)
  %8 = load ptr, ptr %4, align 8, !tbaa !28
  %9 = load i32, ptr %8, align 4
  %10 = lshr i32 %9, 1
  %11 = getelementptr inbounds nuw %class.mpfx_manager, ptr %5, i32 0, i32 2
  %12 = load i32, ptr %11, align 8, !tbaa !20
  %13 = mul i32 %10, %12
  %14 = zext i32 %13 to i64
  %15 = getelementptr inbounds nuw i32, ptr %7, i64 %14
  ret ptr %15
}

; Function Attrs: mustprogress uwtable
define linkonce_odr hidden void @_ZN12mpfx_manager11to_mpz_coreILb1EEEvRK4mpfxR11mpz_managerIXT_EER3mpz(ptr noundef nonnull align 8 dereferenceable(85) %0, ptr noundef nonnull align 4 dereferenceable(4) %1, ptr noundef nonnull align 8 dereferenceable(600) %2, ptr noundef nonnull align 8 dereferenceable(16) %3) #4 comdat align 2 {
  %5 = alloca ptr, align 8
  %6 = alloca ptr, align 8
  %7 = alloca ptr, align 8
  %8 = alloca ptr, align 8
  %9 = alloca ptr, align 8
  store ptr %0, ptr %5, align 8, !tbaa !3
  store ptr %1, ptr %6, align 8, !tbaa !28
  store ptr %2, ptr %7, align 8, !tbaa !72
  store ptr %3, ptr %8, align 8, !tbaa !69
  %10 = load ptr, ptr %5, align 8
  call void @llvm.lifetime.start.p0(i64 8, ptr %9) #3
  %11 = load ptr, ptr %6, align 8, !tbaa !28
  %12 = call noundef ptr @_ZNK12mpfx_manager5wordsERK4mpfx(ptr noundef nonnull align 8 dereferenceable(85) %10, ptr noundef nonnull align 4 dereferenceable(4) %11)
  store ptr %12, ptr %9, align 8, !tbaa !35
  %13 = load ptr, ptr %7, align 8, !tbaa !72
  %14 = load ptr, ptr %8, align 8, !tbaa !69
  %15 = getelementptr inbounds nuw %class.mpfx_manager, ptr %10, i32 0, i32 0
  %16 = load i32, ptr %15, align 8, !tbaa !10
  %17 = load ptr, ptr %9, align 8, !tbaa !35
  %18 = getelementptr inbounds nuw %class.mpfx_manager, ptr %10, i32 0, i32 1
  %19 = load i32, ptr %18, align 4, !tbaa !19
  %20 = zext i32 %19 to i64
  %21 = getelementptr inbounds nuw i32, ptr %17, i64 %20
  call void @_ZN11mpz_managerILb1EE10set_digitsER3mpzjPKj(ptr noundef nonnull align 8 dereferenceable(600) %13, ptr noundef nonnull align 8 dereferenceable(16) %14, i32 noundef %16, ptr noundef %21)
  %22 = load ptr, ptr %6, align 8, !tbaa !28
  %23 = call noundef zeroext i1 @_ZN12mpfx_manager6is_negERK4mpfx(ptr noundef nonnull align 4 dereferenceable(4) %22)
  br i1 %23, label %24, label %27

24:                                               ; preds = %4
  %25 = load ptr, ptr %7, align 8, !tbaa !72
  %26 = load ptr, ptr %8, align 8, !tbaa !69
  call void @_ZN11mpz_managerILb1EE3negER3mpz(ptr noundef nonnull align 8 dereferenceable(600) %25, ptr noundef nonnull align 8 dereferenceable(16) %26)
  br label %27

27:                                               ; preds = %24, %4
  call void @llvm.lifetime.end.p0(i64 8, ptr %9) #3
  ret void
}

; Function Attrs: mustprogress uwtable
define hidden void @_ZN12mpfx_manager6to_mpzERK4mpfxR11mpz_managerILb1EER3mpz(ptr noundef nonnull align 8 dereferenceable(85) %0, ptr noundef nonnull align 4 dereferenceable(4) %1, ptr noundef nonnull align 8 dereferenceable(600) %2, ptr noundef nonnull align 8 dereferenceable(16) %3) #4 align 2 {
  %5 = alloca ptr, align 8
  %6 = alloca ptr, align 8
  %7 = alloca ptr, align 8
  %8 = alloca ptr, align 8
  store ptr %0, ptr %5, align 8, !tbaa !3
  store ptr %1, ptr %6, align 8, !tbaa !28
  store ptr %2, ptr %7, align 8, !tbaa !72
  store ptr %3, ptr %8, align 8, !tbaa !69
  %9 = load ptr, ptr %5, align 8
  %10 = load ptr, ptr %6, align 8, !tbaa !28
  %11 = load ptr, ptr %7, align 8, !tbaa !72
  %12 = load ptr, ptr %8, align 8, !tbaa !69
  call void @_ZN12mpfx_manager11to_mpz_coreILb1EEEvRK4mpfxR11mpz_managerIXT_EER3mpz(ptr noundef nonnull align 8 dereferenceable(85) %9, ptr noundef nonnull align 4 dereferenceable(4) %10, ptr noundef nonnull align 8 dereferenceable(600) %11, ptr noundef nonnull align 8 dereferenceable(16) %12)
  ret void
}